; Function Attrs: nounwind uwtable
define void @If_ManCollectLatches_rec(ptr noundef %0, ptr noundef captures(none) %1) local_unnamed_addr #2 {
  %.val.i = load i32, ptr %0, align 8
  %3 = and i32 %.val.i, 15
  %.not.i = icmp eq i32 %3, 2
  br i1 %.not.i, label %If_ObjIsLatch.exit, label %If_ObjIsLatch.exit.thread

If_ObjIsLatch.exit:                               ; preds = %2
  %4 = getelementptr inbounds nuw i8, ptr %0, i64 24
  %5 = load ptr, ptr %4, align 8, !tbaa !35
  %6 = icmp ne ptr %5, null
  %7 = and i32 %.val.i, 256
  %.not7 = icmp eq i32 %7, 0
  %or.cond = and i1 %.not7, %6
  br i1 %or.cond, label %8, label %If_ObjIsLatch.exit.thread

8:                                                ; preds = %If_ObjIsLatch.exit
  %9 = or disjoint i32 %.val.i, 256
  store i32 %9, ptr %0, align 8
  tail call void @If_ManCollectLatches_rec(ptr noundef nonnull %5, ptr noundef %1)
  %10 = getelementptr inbounds nuw i8, ptr %1, i64 4
  %11 = load i32, ptr %10, align 4, !tbaa !40
  %12 = load i32, ptr %1, align 8, !tbaa !41
  %13 = icmp eq i32 %11, %12
  br i1 %13, label %14, label %.Vec_PtrGrow.exit11_crit_edge.i

.Vec_PtrGrow.exit11_crit_edge.i:                  ; preds = %8
  %.phi.trans.insert.i = getelementptr inbounds nuw i8, ptr %1, i64 8
  %.pre.i = load ptr, ptr %.phi.trans.insert.i, align 8, !tbaa !31
  br label %Vec_PtrPush.exit

14:                                               ; preds = %8
  %15 = icmp slt i32 %11, 16
  br i1 %15, label %16, label %24

16:                                               ; preds = %14
  %17 = getelementptr inbounds nuw i8, ptr %1, i64 8
  %18 = load ptr, ptr %17, align 8, !tbaa !31
  %.not9.i.i = icmp eq ptr %18, null
  br i1 %.not9.i.i, label %21, label %19

19:                                               ; preds = %16
  %20 = tail call dereferenceable_or_null(128) ptr @realloc(ptr noundef nonnull %18, i64 noundef 128) #12
  br label %Vec_PtrGrow.exit.i

21:                                               ; preds = %16
  %22 = tail call noalias dereferenceable_or_null(128) ptr @malloc(i64 noundef 128) #13
  br label %Vec_PtrGrow.exit.i

Vec_PtrGrow.exit.i:                               ; preds = %21, %19
  %23 = phi ptr [ %20, %19 ], [ %22, %21 ]
  store ptr %23, ptr %17, align 8, !tbaa !31
  store i32 16, ptr %1, align 8, !tbaa !41
  br label %Vec_PtrPush.exit

24:                                               ; preds = %14
  %25 = shl nuw nsw i32 %11, 1
  %26 = getelementptr inbounds nuw i8, ptr %1, i64 8
  %27 = load ptr, ptr %26, align 8, !tbaa !31
  %.not9.i10.i = icmp eq ptr %27, null
  %28 = zext nneg i32 %25 to i64
  %29 = shl nuw nsw i64 %28, 3
  br i1 %.not9.i10.i, label %32, label %30

30:                                               ; preds = %24
  %31 = tail call ptr @realloc(ptr noundef nonnull %27, i64 noundef %29) #12
  br label %34

32:                                               ; preds = %24
  %33 = tail call noalias ptr @malloc(i64 noundef %29) #13
  br label %34

34:                                               ; preds = %32, %30
  %35 = phi ptr [ %31, %30 ], [ %33, %32 ]
  store ptr %35, ptr %26, align 8, !tbaa !31
  store i32 %25, ptr %1, align 8, !tbaa !41
  br label %Vec_PtrPush.exit

Vec_PtrPush.exit:                                 ; preds = %.Vec_PtrGrow.exit11_crit_edge.i, %Vec_PtrGrow.exit.i, %34
  %36 = phi ptr [ %.pre.i, %.Vec_PtrGrow.exit11_crit_edge.i ], [ %35, %34 ], [ %23, %Vec_PtrGrow.exit.i ]
  %37 = load i32, ptr %10, align 4, !tbaa !40
  %38 = add nsw i32 %37, 1
  store i32 %38, ptr %10, align 4, !tbaa !40
  %39 = sext i32 %37 to i64
  %40 = getelementptr inbounds ptr, ptr %36, i64 %39
  store ptr %0, ptr %40, align 8, !tbaa !33
  br label %If_ObjIsLatch.exit.thread

If_ObjIsLatch.exit.thread:                        ; preds = %2, %If_ObjIsLatch.exit, %Vec_PtrPush.exit
  ret void
}